(dp0
Vengine
p1
S'pdflatex'
p2
sVpackages
p3
c__builtin__
set
p4
((lp5
Vmathtools
p6
aVlistings
p7
aVtikz-3dplot
p8
aVtitlesec
p9
aVamsmath
p10
aVbabel
p11
aVfloat
p12
aVtikz
p13
aVframed
p14
aVqtree
p15
aVgeometry
p16
aVcolor
p17
aVvarioref
p18
aVgraphicx
p19
aVamsfonts
p20
aVfancyref
p21
aVcalligra
p22
aVinputenc
p23
aVsubfig
p24
aVamssymb
p25
atp26
Rp27
sVfiles_with_guttermarks
p28
g4
((lp29
S'Assignment8.tex'
p30
atp31
Rp32
sVsynctex
p33
I01
s.