(dp0
Vengine
p1
S'pdflatex'
p2
sVpackages
p3
c__builtin__
set
p4
((lp5
Vmathtools
p6
aVlistings
p7
aVtikz-3dplot
p8
aVtitlesec
p9
aVamsmath
p10
aVbabel
p11
aVfloat
p12
aVtikz
p13
aVframed
p14
aVqtree
p15
aVgeometry
p16
aVcolor
p17
aVgraphicx
p18
aVamsfonts
p19
aVfancyref
p20
aVcalligra
p21
aVinputenc
p22
aVvarioref
p23
aVamssymb
p24
atp25
Rp26
sVfiles_with_guttermarks
p27
g4
((lp28
S'061918.tex'
p29
aV/Users/APizzuto/Desktop/CS/CS577/Notes/061918.tex
p30
atp31
Rp32
sVsynctex
p33
I01
s.